target datalayout = "e-m:e-p270:32:32-p271:32:32-p272:64:64-i64:64-i128:128-f80:128-n8:16:32:64-S128"
target triple = "x86_64-pc-linux-gnu"

%"class.std::exception" = type { ptr }
%"struct.std::__cow_string" = type { %union.anon.1 }
%union.anon.1 = type { ptr }
%struct.tm = type { i32, i32, i32, i32, i32, i32, i32, i32, i32, i64, ptr }
%"class.boost::asio::mutable_buffer" = type { ptr, i64 }
%"struct.boost::log::v2_mt_posix::sinks::anonymous::syslog_udp_socket" = type { %"class.boost::asio::basic_datagram_socket" }
%"class.boost::asio::basic_datagram_socket" = type { %"class.boost::asio::basic_socket" }
%"class.boost::asio::basic_socket" = type { %"class.boost::asio::detail::io_object_impl" }
%"class.boost::asio::detail::io_object_impl" = type { ptr, %"struct.boost::asio::detail::reactive_socket_service<boost::asio::ip::udp>::implementation_type", %"class.boost::asio::any_io_executor" }
%"struct.boost::asio::detail::reactive_socket_service<boost::asio::ip::udp>::implementation_type" = type <{ %"struct.boost::asio::detail::reactive_socket_service_base::base_implementation_type", %"class.boost::asio::ip::udp", [4 x i8] }>
%"struct.boost::asio::detail::reactive_socket_service_base::base_implementation_type" = type { i32, i8, ptr }
%"class.boost::asio::ip::udp" = type { i32 }
%"class.boost::asio::any_io_executor" = type { %"class.boost::asio::execution::any_executor" }
%"class.boost::asio::execution::any_executor" = type { %"class.boost::asio::execution::detail::any_executor_base", ptr }
%"class.boost::asio::execution::detail::any_executor_base" = type { %"struct.boost::asio::aligned_storage<24, 8>::type", ptr, ptr, ptr }
%"struct.boost::asio::aligned_storage<24, 8>::type" = type { [24 x i8] }
%"class.std::runtime_error" = type { %"class.std::exception", %"struct.std::__cow_string" }

@.str.8 = private unnamed_addr constant [32 x i8] c"<%d>%s %2d %02d:%02d:%02d %s %s\00", align 1
@.str.35 = private unnamed_addr constant [46 x i8] c"could not convert calendar time to local time\00", align 1

; Function Attrs: mustprogress nounwind uwtable
define linkonce_odr hidden void @_ZN5boost4asio14mutable_bufferC2EPvm(ptr noundef nonnull align 8 dereferenceable(16) %0, ptr noundef %1, i64 noundef %2) unnamed_addr #2 comdat align 2 {
  %4 = alloca ptr, align 8
  %5 = alloca ptr, align 8
  %6 = alloca i64, align 8
  store ptr %0, ptr %4, align 8, !tbaa !7
  store ptr %1, ptr %5, align 8, !tbaa !7
  store i64 %2, ptr %6, align 8, !tbaa !21
  %7 = load ptr, ptr %4, align 8
  %8 = getelementptr inbounds nuw %"class.boost::asio::mutable_buffer", ptr %7, i32 0, i32 0
  %9 = load ptr, ptr %5, align 8, !tbaa !7
  store ptr %9, ptr %8, align 8, !tbaa !400
  %10 = getelementptr inbounds nuw %"class.boost::asio::mutable_buffer", ptr %7, i32 0, i32 1
  %11 = load i64, ptr %6, align 8, !tbaa !21
  store i64 %11, ptr %10, align 8, !tbaa !402
  ret void
}

; Function Attrs: inlinehint mustprogress nounwind uwtable
define linkonce_odr { ptr, i64 } @_ZN5boost4asio6bufferIcLm1025EEENS0_14mutable_bufferERAT0__T_m(ptr noundef nonnull align 1 dereferenceable(1025) %0, i64 noundef %1) #1 comdat {
  %3 = alloca %"class.boost::asio::mutable_buffer", align 8
  %4 = alloca ptr, align 8
  %5 = alloca i64, align 8
  store ptr %0, ptr %4, align 8, !tbaa !7
  store i64 %1, ptr %5, align 8, !tbaa !21
  %6 = load ptr, ptr %4, align 8, !tbaa !7
  %7 = getelementptr inbounds [1025 x i8], ptr %6, i64 0, i64 0
  %8 = load i64, ptr %5, align 8, !tbaa !21
  %9 = icmp ult i64 1025, %8
  br i1 %9, label %10, label %11

10:                                               ; preds = %2
  br label %13

11:                                               ; preds = %2
  %12 = load i64, ptr %5, align 8, !tbaa !21
  br label %13

13:                                               ; preds = %11, %10
  %14 = phi i64 [ 1025, %10 ], [ %12, %11 ]
  call void @_ZN5boost4asio14mutable_bufferC2EPvm(ptr noundef nonnull align 8 dereferenceable(16) %3, ptr noundef %7, i64 noundef %14) #16
  %15 = load { ptr, i64 }, ptr %3, align 8
  ret { ptr, i64 } %15
}

; Function Attrs: inlinehint mustprogress uwtable
define linkonce_odr hidden noundef ptr @_ZN5boost9date_time6c_time9localtimeEPKlP2tm(ptr noundef %0, ptr noundef %1) #0 comdat align 2 personality ptr @__gxx_personality_v0 {
  %3 = alloca ptr, align 8
  %4 = alloca ptr, align 8
  %5 = alloca %"class.std::runtime_error", align 8
  %6 = alloca ptr, align 8
  %7 = alloca i32, align 4
  store ptr %0, ptr %3, align 8, !tbaa !7
  store ptr %1, ptr %4, align 8, !tbaa !7
  %8 = load ptr, ptr %3, align 8, !tbaa !7
  %9 = load ptr, ptr %4, align 8, !tbaa !7
  %10 = call ptr @localtime_r(ptr noundef %8, ptr noundef %9) #16
  store ptr %10, ptr %4, align 8, !tbaa !7
  %11 = load ptr, ptr %4, align 8, !tbaa !7
  %12 = icmp ne ptr %11, null
  br i1 %12, label %19, label %13

13:                                               ; preds = %2
  call void @llvm.lifetime.start.p0(i64 16, ptr %5) #16
  call void @_ZNSt13runtime_errorC1EPKc(ptr noundef nonnull align 8 dereferenceable(16) %5, ptr noundef @.str.35)
  invoke void @_ZN5boost15throw_exceptionISt13runtime_errorEEvRKT_(ptr noundef nonnull align 8 dereferenceable(16) %5) #30
          to label %14 unwind label %15

14:                                               ; preds = %13
  unreachable

15:                                               ; preds = %13
  %16 = landingpad { ptr, i32 }
          cleanup
  %17 = extractvalue { ptr, i32 } %16, 0
  store ptr %17, ptr %6, align 8
  %18 = extractvalue { ptr, i32 } %16, 1
  store i32 %18, ptr %7, align 4
  call void @_ZNSt13runtime_errorD1Ev(ptr noundef nonnull align 8 dereferenceable(16) %5) #16
  call void @llvm.lifetime.end.p0(i64 16, ptr %5) #16
  br label %21

19:                                               ; preds = %2
  %20 = load ptr, ptr %4, align 8, !tbaa !7
  ret ptr %20

21:                                               ; preds = %15
  %22 = load ptr, ptr %6, align 8
  %23 = load i32, ptr %7, align 4
  %24 = insertvalue { ptr, i32 } poison, ptr %22, 0
  %25 = insertvalue { ptr, i32 } %24, i32 %23, 1
  resume { ptr, i32 } %25
}

; Function Attrs: mustprogress uwtable
define hidden void @_ZN5boost3log11v2_mt_posix5sinks9anonymous17syslog_udp_socket12send_messageEiPKcRKNS_4asio2ip14basic_endpointINS8_3udpEEES6_(ptr noundef nonnull align 8 dereferenceable(88) %0, i32 noundef %1, ptr noundef %2, ptr noundef nonnull align 4 dereferenceable(28) %3, ptr noundef %4) #5 align 2 {
  %6 = alloca ptr, align 8
  %7 = alloca i32, align 4
  %8 = alloca ptr, align 8
  %9 = alloca ptr, align 8
  %10 = alloca ptr, align 8
  %11 = alloca i64, align 8
  %12 = alloca %struct.tm, align 8
  %13 = alloca ptr, align 8
  %14 = alloca [1025 x i8], align 16
  %15 = alloca i32, align 4
  %16 = alloca i64, align 8
  %17 = alloca %"class.boost::asio::mutable_buffer", align 8
  store ptr %0, ptr %6, align 8, !tbaa !7
  store i32 %1, ptr %7, align 4, !tbaa !3
  store ptr %2, ptr %8, align 8, !tbaa !7
  store ptr %3, ptr %9, align 8, !tbaa !7
  store ptr %4, ptr %10, align 8, !tbaa !7
  %18 = load ptr, ptr %6, align 8
  call void @llvm.lifetime.start.p0(i64 8, ptr %11) #16
  %19 = call i64 @time(ptr noundef null) #16
  store i64 %19, ptr %11, align 8, !tbaa !21
  call void @llvm.lifetime.start.p0(i64 56, ptr %12) #16
  call void @llvm.lifetime.start.p0(i64 8, ptr %13) #16
  %20 = call noundef ptr @_ZN5boost9date_time6c_time9localtimeEPKlP2tm(ptr noundef %11, ptr noundef %12)
  store ptr %20, ptr %13, align 8, !tbaa !7
  call void @llvm.lifetime.start.p0(i64 1025, ptr %14) #16
  call void @llvm.lifetime.start.p0(i64 4, ptr %15) #16
  %21 = getelementptr inbounds [1025 x i8], ptr %14, i64 0, i64 0
  %22 = load i32, ptr %7, align 4, !tbaa !3
  %23 = load ptr, ptr %13, align 8, !tbaa !7
  %24 = getelementptr inbounds nuw %struct.tm, ptr %23, i32 0, i32 4
  %25 = load i32, ptr %24, align 8, !tbaa !23
  %26 = sext i32 %25 to i64
  %27 = getelementptr inbounds [12 x [4 x i8]], ptr @_ZZN5boost3log11v2_mt_posix5sinks9anonymous17syslog_udp_socket12send_messageEiPKcRKNS_4asio2ip14basic_endpointINS8_3udpEEES6_E6months, i64 0, i64 %26
  %28 = getelementptr inbounds [4 x i8], ptr %27, i64 0, i64 0
  %29 = load ptr, ptr %13, align 8, !tbaa !7
  %30 = getelementptr inbounds nuw %struct.tm, ptr %29, i32 0, i32 3
  %31 = load i32, ptr %30, align 4, !tbaa !25
  %32 = load ptr, ptr %13, align 8, !tbaa !7
  %33 = getelementptr inbounds nuw %struct.tm, ptr %32, i32 0, i32 2
  %34 = load i32, ptr %33, align 8, !tbaa !26
  %35 = load ptr, ptr %13, align 8, !tbaa !7
  %36 = getelementptr inbounds nuw %struct.tm, ptr %35, i32 0, i32 1
  %37 = load i32, ptr %36, align 4, !tbaa !27
  %38 = load ptr, ptr %13, align 8, !tbaa !7
  %39 = getelementptr inbounds nuw %struct.tm, ptr %38, i32 0, i32 0
  %40 = load i32, ptr %39, align 8, !tbaa !28
  %41 = load ptr, ptr %8, align 8, !tbaa !7
  %42 = load ptr, ptr %10, align 8, !tbaa !7
  %43 = call i32 (ptr, i64, ptr, ...) @snprintf(ptr noundef %21, i64 noundef 1025, ptr noundef @.str.8, i32 noundef %22, ptr noundef %28, i32 noundef %31, i32 noundef %34, i32 noundef %37, i32 noundef %40, ptr noundef %41, ptr noundef %42) #16
  store i32 %43, ptr %15, align 4, !tbaa !3
  %44 = load i32, ptr %15, align 4, !tbaa !3
  %45 = icmp sgt i32 %44, 0
  %46 = zext i1 %45 to i64
  %47 = call i64 @llvm.expect.i64(i64 %46, i64 1)
  %48 = icmp ne i64 %47, 0
  br i1 %48, label %49, label %68

49:                                               ; preds = %5
  call void @llvm.lifetime.start.p0(i64 8, ptr %16) #16
  %50 = load i32, ptr %15, align 4, !tbaa !3
  %51 = sext i32 %50 to i64
  %52 = icmp uge i64 %51, 1025
  br i1 %52, label %53, label %54

53:                                               ; preds = %49
  br label %57

54:                                               ; preds = %49
  %55 = load i32, ptr %15, align 4, !tbaa !3
  %56 = sext i32 %55 to i64
  br label %57

57:                                               ; preds = %54, %53
  %58 = phi i64 [ 1024, %53 ], [ %56, %54 ]
  store i64 %58, ptr %16, align 8, !tbaa !21
  %59 = getelementptr inbounds nuw %"struct.boost::log::v2_mt_posix::sinks::anonymous::syslog_udp_socket", ptr %18, i32 0, i32 0
  call void @llvm.lifetime.start.p0(i64 16, ptr %17) #16
  %60 = load i64, ptr %16, align 8, !tbaa !21
  %61 = call { ptr, i64 } @_ZN5boost4asio6bufferIcLm1025EEENS0_14mutable_bufferERAT0__T_m(ptr noundef nonnull align 1 dereferenceable(1025) %14, i64 noundef %60) #16
  %62 = getelementptr inbounds nuw { ptr, i64 }, ptr %17, i32 0, i32 0
  %63 = extractvalue { ptr, i64 } %61, 0
  store ptr %63, ptr %62, align 8
  %64 = getelementptr inbounds nuw { ptr, i64 }, ptr %17, i32 0, i32 1
  %65 = extractvalue { ptr, i64 } %61, 1
  store i64 %65, ptr %64, align 8
  %66 = load ptr, ptr %9, align 8, !tbaa !7
  %67 = call noundef i64 @_ZN5boost4asio21basic_datagram_socketINS0_2ip3udpENS0_15any_io_executorEE7send_toINS0_14mutable_bufferEEEmRKT_RKNS2_14basic_endpointIS3_EE(ptr noundef nonnull align 8 dereferenceable(88) %59, ptr noundef nonnull align 8 dereferenceable(16) %17, ptr noundef nonnull align 4 dereferenceable(28) %66)
  call void @llvm.lifetime.end.p0(i64 16, ptr %17) #16
  call void @llvm.lifetime.end.p0(i64 8, ptr %16) #16
  br label %68

68:                                               ; preds = %57, %5
  call void @llvm.lifetime.end.p0(i64 4, ptr %15) #16
  call void @llvm.lifetime.end.p0(i64 1025, ptr %14) #16
  call void @llvm.lifetime.end.p0(i64 8, ptr %13) #16
  call void @llvm.lifetime.end.p0(i64 56, ptr %12) #16
  call void @llvm.lifetime.end.p0(i64 8, ptr %11) #16
  ret void
}