; Function Attrs: mustprogress uwtable
define hidden void @_ZN5boost3log11v2_mt_posix5sinks9anonymous17syslog_udp_socket12send_messageEiPKcRKNS_4asio2ip14basic_endpointINS8_3udpEEES6_(ptr noundef nonnull align 8 dereferenceable(88) %0, i32 noundef %1, ptr noundef %2, ptr noundef nonnull align 4 dereferenceable(28) %3, ptr noundef %4) local_unnamed_addr #4 align 2 personality ptr @__gxx_personality_v0 {
  %6 = alloca %"class.std::runtime_error", align 8
  %7 = alloca i64, align 8
  %8 = alloca %struct.tm, align 8
  %9 = alloca [1025 x i8], align 16
  %10 = alloca %"class.boost::asio::mutable_buffer", align 8
  call void @llvm.lifetime.start.p0(i64 8, ptr nonnull %7) #33
  %11 = tail call i64 @time(ptr noundef null) #33
  store i64 %11, ptr %7, align 8, !tbaa !13
  call void @llvm.lifetime.start.p0(i64 56, ptr nonnull %8) #33
  %12 = call ptr @localtime_r(ptr noundef nonnull %7, ptr noundef nonnull %8) #33
  %.not.i = icmp eq ptr %12, null
  br i1 %.not.i, label %13, label %_ZN5boost9date_time6c_time9localtimeEPKlP2tm.exit

13:                                               ; preds = %5
  call void @llvm.lifetime.start.p0(i64 16, ptr nonnull %6) #33
  call void @_ZNSt13runtime_errorC1EPKc(ptr noundef nonnull align 8 dereferenceable(16) %6, ptr noundef nonnull @.str.35)
  invoke void @_ZN5boost15throw_exceptionISt13runtime_errorEEvRKT_(ptr noundef nonnull align 8 dereferenceable(16) %6) #35
          to label %14 unwind label %15

14:                                               ; preds = %13
  unreachable

15:                                               ; preds = %13
  %16 = landingpad { ptr, i32 }
          cleanup
  call void @_ZNSt13runtime_errorD1Ev(ptr noundef nonnull align 8 dereferenceable(16) %6) #33
  call void @llvm.lifetime.end.p0(i64 16, ptr nonnull %6) #33
  resume { ptr, i32 } %16

_ZN5boost9date_time6c_time9localtimeEPKlP2tm.exit: ; preds = %5
  call void @llvm.lifetime.start.p0(i64 1025, ptr nonnull %9) #33
  %17 = getelementptr inbounds nuw i8, ptr %12, i64 16
  %18 = load i32, ptr %17, align 8, !tbaa !15
  %19 = sext i32 %18 to i64
  %20 = getelementptr inbounds [12 x [4 x i8]], ptr @_ZZN5boost3log11v2_mt_posix5sinks9anonymous17syslog_udp_socket12send_messageEiPKcRKNS_4asio2ip14basic_endpointINS8_3udpEEES6_E6months, i64 0, i64 %19
  %21 = getelementptr inbounds nuw i8, ptr %12, i64 12
  %22 = load i32, ptr %21, align 4, !tbaa !17
  %23 = getelementptr inbounds nuw i8, ptr %12, i64 8
  %24 = load i32, ptr %23, align 8, !tbaa !18
  %25 = getelementptr inbounds nuw i8, ptr %12, i64 4
  %26 = load i32, ptr %25, align 4, !tbaa !19
  %27 = load i32, ptr %12, align 8, !tbaa !20
  %28 = call i32 (ptr, i64, ptr, ...) @snprintf(ptr noundef nonnull dereferenceable(1) %9, i64 noundef 1025, ptr noundef nonnull @.str.8, i32 noundef %1, ptr noundef nonnull %20, i32 noundef %22, i32 noundef %24, i32 noundef %26, i32 noundef %27, ptr noundef %2, ptr noundef %4) #33
  %29 = icmp sgt i32 %28, 0
  br i1 %29, label %30, label %35, !prof !21

30:                                               ; preds = %_ZN5boost9date_time6c_time9localtimeEPKlP2tm.exit
  %31 = call i32 @llvm.umin.i32(i32 %28, i32 1024)
  %32 = zext nneg i32 %31 to i64
  call void @llvm.lifetime.start.p0(i64 16, ptr nonnull %10) #33
  store ptr %9, ptr %10, align 8
  %33 = getelementptr inbounds nuw i8, ptr %10, i64 8
  store i64 %32, ptr %33, align 8
  %34 = call noundef i64 @_ZN5boost4asio21basic_datagram_socketINS0_2ip3udpENS0_15any_io_executorEE7send_toINS0_14mutable_bufferEEEmRKT_RKNS2_14basic_endpointIS3_EE(ptr noundef nonnull align 8 dereferenceable(88) %0, ptr noundef nonnull align 8 dereferenceable(16) %10, ptr noundef nonnull align 4 dereferenceable(28) %3)
  call void @llvm.lifetime.end.p0(i64 16, ptr nonnull %10) #33
  br label %35

35:                                               ; preds = %30, %_ZN5boost9date_time6c_time9localtimeEPKlP2tm.exit
  call void @llvm.lifetime.end.p0(i64 1025, ptr nonnull %9) #33
  call void @llvm.lifetime.end.p0(i64 56, ptr nonnull %8) #33
  call void @llvm.lifetime.end.p0(i64 8, ptr nonnull %7) #33
  ret void
}